target datalayout = "e-m:e-p270:32:32-p271:32:32-p272:64:64-i64:64-i128:128-f80:128-n8:16:32:64-S128"
target triple = "x86_64-pc-linux-gnu"

%struct.PaUtilBufferProcessor = type { i64, i64, i32, i32, i32, i32, i64, i32, i32, i32, i32, ptr, ptr, i32, i32, i32, i32, ptr, ptr, i64, i64, ptr, ptr, i64, ptr, ptr, i64, ptr, i64, i32, [2 x i64], [2 x ptr], i32, [2 x i64], [2 x ptr], %struct.PaUtilTriangularDitherGenerator, double, ptr, ptr }
%struct.PaUtilTriangularDitherGenerator = type { i32, i32, i32 }
%struct.PaUtilChannelDescriptor = type { ptr, i32 }

; Function Attrs: nounwind uwtable
define void @PaUtil_Set2ndInterleavedInputChannels(ptr noundef %0, i32 noundef %1, ptr noundef %2, i32 noundef %3) #0 {
  %5 = alloca ptr, align 8
  %6 = alloca i32, align 4
  %7 = alloca ptr, align 8
  %8 = alloca i32, align 4
  %9 = alloca i32, align 4
  %10 = alloca i32, align 4
  %11 = alloca ptr, align 8
  store ptr %0, ptr %5, align 8
  store i32 %1, ptr %6, align 4
  store ptr %2, ptr %7, align 8
  store i32 %3, ptr %8, align 4
  %12 = load i32, ptr %6, align 4
  store i32 %12, ptr %10, align 4
  %13 = load ptr, ptr %7, align 8
  store ptr %13, ptr %11, align 8
  %14 = load i32, ptr %8, align 4
  %15 = icmp eq i32 %14, 0
  br i1 %15, label %16, label %20

16:                                               ; preds = %4
  %17 = load ptr, ptr %5, align 8
  %18 = getelementptr inbounds nuw %struct.PaUtilBufferProcessor, ptr %17, i32 0, i32 7
  %19 = load i32, ptr %18, align 8
  store i32 %19, ptr %8, align 4
  br label %20

20:                                               ; preds = %16, %4
  store i32 0, ptr %9, align 4
  br label %21

21:                                               ; preds = %54, %20
  %22 = load i32, ptr %9, align 4
  %23 = load i32, ptr %8, align 4
  %24 = icmp ult i32 %22, %23
  br i1 %24, label %25, label %57

25:                                               ; preds = %21
  %26 = load ptr, ptr %11, align 8
  %27 = load ptr, ptr %5, align 8
  %28 = getelementptr inbounds nuw %struct.PaUtilBufferProcessor, ptr %27, i32 0, i32 31
  %29 = getelementptr inbounds [2 x ptr], ptr %28, i64 0, i64 1
  %30 = load ptr, ptr %29, align 8
  %31 = load i32, ptr %10, align 4
  %32 = load i32, ptr %9, align 4
  %33 = add i32 %31, %32
  %34 = zext i32 %33 to i64
  %35 = getelementptr inbounds %struct.PaUtilChannelDescriptor, ptr %30, i64 %34
  %36 = getelementptr inbounds nuw %struct.PaUtilChannelDescriptor, ptr %35, i32 0, i32 0
  store ptr %26, ptr %36, align 8
  %37 = load ptr, ptr %5, align 8
  %38 = getelementptr inbounds nuw %struct.PaUtilBufferProcessor, ptr %37, i32 0, i32 8
  %39 = load i32, ptr %38, align 4
  %40 = load ptr, ptr %11, align 8
  %41 = zext i32 %39 to i64
  %42 = getelementptr inbounds i8, ptr %40, i64 %41
  store ptr %42, ptr %11, align 8
  %43 = load i32, ptr %8, align 4
  %44 = load ptr, ptr %5, align 8
  %45 = getelementptr inbounds nuw %struct.PaUtilBufferProcessor, ptr %44, i32 0, i32 31
  %46 = getelementptr inbounds [2 x ptr], ptr %45, i64 0, i64 1
  %47 = load ptr, ptr %46, align 8
  %48 = load i32, ptr %10, align 4
  %49 = load i32, ptr %9, align 4
  %50 = add i32 %48, %49
  %51 = zext i32 %50 to i64
  %52 = getelementptr inbounds %struct.PaUtilChannelDescriptor, ptr %47, i64 %51
  %53 = getelementptr inbounds nuw %struct.PaUtilChannelDescriptor, ptr %52, i32 0, i32 1
  store i32 %43, ptr %53, align 8
  br label %54

54:                                               ; preds = %25
  %55 = load i32, ptr %9, align 4
  %56 = add i32 %55, 1
  store i32 %56, ptr %9, align 4
  br label %21, !llvm.loop !7

57:                                               ; preds = %21
  ret void
}